; Function Attrs: mustprogress uwtable
define internal void @_ZN7rocksdb12_GLOBAL__N_112SimCacheImpl19StopActivityLoggingEv(ptr noundef nonnull align 8 dereferenceable(216) %0) unnamed_addr #4 align 2 personality ptr @__gxx_personality_v0 {
  %2 = getelementptr inbounds nuw i8, ptr %0, i64 136
  tail call void @_ZN7rocksdb4port5Mutex4LockEv(ptr noundef nonnull align 8 dereferenceable(80) %2)
  invoke fastcc void @_ZN7rocksdb12_GLOBAL__N_119CacheActivityLogger19StopLoggingInternalEv(ptr noundef nonnull align 8 dereferenceable(80) %2)
          to label %3 unwind label %7

3:                                                ; preds = %1
  invoke void @_ZN7rocksdb4port5Mutex6UnlockEv(ptr noundef nonnull align 8 dereferenceable(80) %2)
          to label %_ZN7rocksdb12_GLOBAL__N_119CacheActivityLogger11StopLoggingEv.exit unwind label %4

4:                                                ; preds = %3
  %5 = landingpad { ptr, i32 }
          catch ptr null
  %6 = extractvalue { ptr, i32 } %5, 0
  tail call void @__clang_call_terminate(ptr %6) #26
  unreachable

7:                                                ; preds = %1
  %8 = landingpad { ptr, i32 }
          cleanup
  invoke void @_ZN7rocksdb4port5Mutex6UnlockEv(ptr noundef nonnull align 8 dereferenceable(80) %2)
          to label %_ZN7rocksdb9MutexLockD2Ev.exit2.i unwind label %9

9:                                                ; preds = %7
  %10 = landingpad { ptr, i32 }
          catch ptr null
  %11 = extractvalue { ptr, i32 } %10, 0
  tail call void @__clang_call_terminate(ptr %11) #26
  unreachable

_ZN7rocksdb9MutexLockD2Ev.exit2.i:                ; preds = %7
  resume { ptr, i32 } %8

_ZN7rocksdb12_GLOBAL__N_119CacheActivityLogger11StopLoggingEv.exit: ; preds = %3
  ret void
}